; Function Attrs: nofree norecurse nosync nounwind memory(readwrite, inaccessiblemem: none) uwtable
define internal noundef i32 @remap_planar16_nearest_slice(ptr noundef readonly captures(none) %0, ptr noundef readonly captures(none) %1, i32 noundef %2, i32 noundef %3) #4 {
  %5 = load ptr, ptr %1, align 8, !tbaa !48
  %6 = getelementptr inbounds nuw i8, ptr %1, i64 24
  %7 = load ptr, ptr %6, align 8, !tbaa !53
  %8 = getelementptr inbounds nuw i8, ptr %7, i64 108
  %9 = load i32, ptr %8, align 4, !tbaa !54
  %10 = mul nsw i32 %9, %2
  %11 = sdiv i32 %10, %3
  %12 = add nsw i32 %2, 1
  %13 = mul nsw i32 %9, %12
  %14 = sdiv i32 %13, %3
  %15 = getelementptr inbounds nuw i8, ptr %1, i64 32
  %16 = load i32, ptr %15, align 8, !tbaa !59
  %17 = icmp sgt i32 %16, 0
  br i1 %17, label %.lr.ph, label %._crit_edge

.lr.ph:                                           ; preds = %4
  %18 = getelementptr inbounds nuw i8, ptr %1, i64 16
  %19 = load ptr, ptr %18, align 8, !tbaa !52
  %20 = getelementptr inbounds nuw i8, ptr %19, i64 64
  %21 = load i32, ptr %20, align 8, !tbaa !45
  %22 = sdiv i32 %21, 2
  %23 = getelementptr inbounds nuw i8, ptr %1, i64 8
  %24 = load ptr, ptr %23, align 8, !tbaa !51
  %25 = getelementptr inbounds nuw i8, ptr %24, i64 64
  %26 = load i32, ptr %25, align 8, !tbaa !45
  %27 = sdiv i32 %26, 2
  %28 = getelementptr inbounds nuw i8, ptr %0, i64 72
  %29 = load ptr, ptr %28, align 8, !tbaa !4
  %30 = getelementptr inbounds nuw i8, ptr %7, i64 64
  %31 = getelementptr inbounds nuw i8, ptr %5, i64 64
  %32 = load ptr, ptr %24, align 8, !tbaa !61
  %33 = mul nsw i32 %27, %11
  %34 = sext i32 %33 to i64
  %35 = getelementptr inbounds i16, ptr %32, i64 %34
  %36 = load ptr, ptr %19, align 8, !tbaa !61
  %37 = mul nsw i32 %22, %11
  %38 = sext i32 %37 to i64
  %39 = getelementptr inbounds i16, ptr %36, i64 %38
  %40 = getelementptr inbounds nuw i8, ptr %29, i64 28
  %41 = icmp slt i32 %11, %14
  %42 = getelementptr inbounds nuw i8, ptr %5, i64 108
  %43 = getelementptr inbounds nuw i8, ptr %5, i64 104
  %44 = sext i32 %27 to i64
  %45 = sext i32 %22 to i64
  br i1 %41, label %.lr.ph.split.us, label %._crit_edge

.lr.ph.split.us:                                  ; preds = %.lr.ph
  %46 = getelementptr inbounds nuw i8, ptr %7, i64 104
  %47 = load i32, ptr %46, align 8, !tbaa !60
  %48 = icmp sgt i32 %47, 0
  br i1 %48, label %.lr.ph.split.us.split.us, label %._crit_edge

.lr.ph.split.us.split.us:                         ; preds = %.lr.ph.split.us
  %49 = load i32, ptr %42, align 4, !tbaa !54
  %wide.trip.count92 = zext nneg i32 %16 to i64
  %wide.trip.count = zext nneg i32 %47 to i64
  br label %.preheader.lr.ph.us.us

.preheader.lr.ph.us.us:                           ; preds = %._crit_edge76.split.us.us.us, %.lr.ph.split.us.split.us
  %indvars.iv89 = phi i64 [ %indvars.iv.next90, %._crit_edge76.split.us.us.us ], [ 0, %.lr.ph.split.us.split.us ]
  %50 = getelementptr inbounds nuw [8 x i32], ptr %30, i64 0, i64 %indvars.iv89
  %51 = load i32, ptr %50, align 4, !tbaa !45
  %52 = sdiv i32 %51, 2
  %53 = getelementptr inbounds nuw [8 x ptr], ptr %5, i64 0, i64 %indvars.iv89
  %54 = load ptr, ptr %53, align 8, !tbaa !61
  %55 = getelementptr inbounds nuw [8 x ptr], ptr %7, i64 0, i64 %indvars.iv89
  %56 = load ptr, ptr %55, align 8, !tbaa !61
  %57 = mul nsw i32 %52, %11
  %58 = sext i32 %57 to i64
  %59 = getelementptr inbounds i16, ptr %56, i64 %58
  %60 = getelementptr inbounds nuw [8 x i32], ptr %31, i64 0, i64 %indvars.iv89
  %61 = load i32, ptr %60, align 4, !tbaa !45
  %62 = sdiv i32 %61, 2
  %63 = getelementptr inbounds nuw [4 x i32], ptr %40, i64 0, i64 %indvars.iv89
  %64 = load i32, ptr %63, align 4, !tbaa !45
  %65 = trunc i32 %64 to i16
  %66 = sext i32 %52 to i64
  br label %.preheader.us.us.us

.preheader.us.us.us:                              ; preds = %._crit_edge.us.us.us, %.preheader.lr.ph.us.us
  %.06475.us.us.us = phi ptr [ %39, %.preheader.lr.ph.us.us ], [ %88, %._crit_edge.us.us.us ]
  %.06574.us.us.us = phi ptr [ %35, %.preheader.lr.ph.us.us ], [ %87, %._crit_edge.us.us.us ]
  %.06673.us.us.us = phi i32 [ %11, %.preheader.lr.ph.us.us ], [ %89, %._crit_edge.us.us.us ]
  %.06772.us.us.us = phi ptr [ %59, %.preheader.lr.ph.us.us ], [ %86, %._crit_edge.us.us.us ]
  br label %67

67:                                               ; preds = %84, %.preheader.us.us.us
  %indvars.iv = phi i64 [ %indvars.iv.next, %84 ], [ 0, %.preheader.us.us.us ]
  %68 = getelementptr inbounds nuw i16, ptr %.06475.us.us.us, i64 %indvars.iv
  %69 = load i16, ptr %68, align 2, !tbaa !65
  %70 = zext i16 %69 to i32
  %71 = icmp sgt i32 %49, %70
  br i1 %71, label %72, label %84

72:                                               ; preds = %67
  %73 = getelementptr inbounds nuw i16, ptr %.06574.us.us.us, i64 %indvars.iv
  %74 = load i16, ptr %73, align 2, !tbaa !65
  %75 = zext i16 %74 to i32
  %76 = load i32, ptr %43, align 8, !tbaa !60
  %77 = icmp sgt i32 %76, %75
  br i1 %77, label %78, label %84

78:                                               ; preds = %72
  %79 = mul nsw i32 %62, %70
  %80 = add nsw i32 %79, %75
  %81 = sext i32 %80 to i64
  %82 = getelementptr inbounds i16, ptr %54, i64 %81
  %83 = load i16, ptr %82, align 2, !tbaa !65
  br label %84

84:                                               ; preds = %67, %72, %78
  %.sink = phi i16 [ %83, %78 ], [ %65, %72 ], [ %65, %67 ]
  %85 = getelementptr inbounds nuw i16, ptr %.06772.us.us.us, i64 %indvars.iv
  store i16 %.sink, ptr %85, align 2, !tbaa !65
  %indvars.iv.next = add nuw nsw i64 %indvars.iv, 1
  %exitcond.not = icmp eq i64 %indvars.iv.next, %wide.trip.count
  br i1 %exitcond.not, label %._crit_edge.us.us.us, label %67, !llvm.loop !74

._crit_edge.us.us.us:                             ; preds = %84
  %86 = getelementptr inbounds i16, ptr %.06772.us.us.us, i64 %66
  %87 = getelementptr inbounds i16, ptr %.06574.us.us.us, i64 %44
  %88 = getelementptr inbounds i16, ptr %.06475.us.us.us, i64 %45
  %89 = add nsw i32 %.06673.us.us.us, 1
  %exitcond88.not = icmp eq i32 %89, %14
  br i1 %exitcond88.not, label %._crit_edge76.split.us.us.us, label %.preheader.us.us.us, !llvm.loop !75

._crit_edge76.split.us.us.us:                     ; preds = %._crit_edge.us.us.us
  %indvars.iv.next90 = add nuw nsw i64 %indvars.iv89, 1
  %exitcond93.not = icmp eq i64 %indvars.iv.next90, %wide.trip.count92
  br i1 %exitcond93.not, label %._crit_edge, label %.preheader.lr.ph.us.us, !llvm.loop !76

._crit_edge:                                      ; preds = %._crit_edge76.split.us.us.us, %.lr.ph.split.us, %.lr.ph, %4
  ret i32 0
}